target datalayout = "e-m:e-p270:32:32-p271:32:32-p272:64:64-i64:64-i128:128-f80:128-n8:16:32:64-S128"
target triple = "x86_64-pc-linux-gnu"

%struct.tMPI_Thread_key_t = type { %struct.tMPI_Atomic, ptr }
%struct.tMPI_Atomic = type { i32, [60 x i8] }
%struct.tmpi_comm_ = type { %struct.tmpi_group_, %struct.tMPI_Barrier_t, ptr, ptr, i32, ptr, ptr, ptr, ptr, %struct.tMPI_Thread_mutex_t, %struct.tMPI_Thread_cond_t, %struct.tMPI_Thread_cond_t, ptr, ptr, ptr, ptr, ptr, ptr, %struct.tMPI_Atomic }
%struct.tmpi_group_ = type { i32, ptr }
%struct.tMPI_Barrier_t = type { %struct.tMPI_Atomic, i32, %struct.tMPI_Atomic }
%struct.tMPI_Thread_mutex_t = type { %struct.tMPI_Atomic, ptr }
%struct.tMPI_Thread_cond_t = type { %struct.tMPI_Atomic, ptr }
%struct.tmpi_thread = type { ptr, %struct.recv_envelope_list, ptr, %struct.free_envelope_list, %struct.tMPI_Atomic, %struct.tMPI_Event_t, %struct.req_list, ptr, ptr, ptr, ptr, i32, ptr }
%struct.recv_envelope_list = type { ptr, %struct.envelope }
%struct.envelope = type { i32, ptr, ptr, ptr, ptr, i64, ptr, i32, %struct.tMPI_Atomic, i32, ptr, ptr, i32, ptr, ptr, ptr, ptr }
%struct.free_envelope_list = type { ptr, ptr }
%struct.tMPI_Event_t = type { %struct.tMPI_Atomic, i32 }
%struct.req_list = type { ptr, ptr }
%struct.tmpi_global = type { ptr, i32, i32, %struct.tMPI_Spinlock, %struct.tMPI_Thread_mutex_t, %struct.tMPI_Thread_barrier_t, %struct.tMPI_Thread_mutex_t, %struct.timeval }
%struct.tMPI_Spinlock = type { i32, [60 x i8] }
%struct.tMPI_Thread_barrier_t = type { %struct.tMPI_Atomic, ptr, i32, i32, i32 }
%struct.timeval = type { i64, i64 }
%struct.tmpi_datatype_ = type { i64, ptr, i32, ptr, i32 }

@TMPI_GROUP_EMPTY = global ptr null, align 8
@threads = global ptr null, align 8
@Nthreads = global i32 0, align 4
@id_key = global %struct.tMPI_Thread_key_t zeroinitializer, align 8
@tmpi_global = global ptr null, align 8
@TMPI_COMM_WORLD = external global ptr, align 8
@_ZL14tmpi_finalized = internal global i32 0, align 4

; Function Attrs: mustprogress uwtable
define internal void @_ZL19tMPI_Global_destroyP11tmpi_global(ptr noundef %0) #0 {
  %2 = alloca ptr, align 8
  %3 = alloca i32, align 4
  store ptr %0, ptr %2, align 8, !tbaa !63
  %4 = load ptr, ptr %2, align 8, !tbaa !63
  %5 = getelementptr inbounds nuw %struct.tmpi_global, ptr %4, i32 0, i32 5
  %6 = call noundef i32 @_Z27tMPI_Thread_barrier_destroyP21tMPI_Thread_barrier_t(ptr noundef %5)
  %7 = load ptr, ptr %2, align 8, !tbaa !63
  %8 = getelementptr inbounds nuw %struct.tmpi_global, ptr %7, i32 0, i32 6
  %9 = call noundef i32 @_Z25tMPI_Thread_mutex_destroyP19tMPI_Thread_mutex_t(ptr noundef %8)
  %10 = load ptr, ptr %2, align 8, !tbaa !63
  %11 = getelementptr inbounds nuw %struct.tmpi_global, ptr %10, i32 0, i32 4
  %12 = call noundef i32 @_Z25tMPI_Thread_mutex_destroyP19tMPI_Thread_mutex_t(ptr noundef %11)
  call void @llvm.lifetime.start.p0(i64 4, ptr %3) #11
  store i32 0, ptr %3, align 4, !tbaa !30
  br label %13

13:                                               ; preds = %37, %1
  %14 = load i32, ptr %3, align 4, !tbaa !30
  %15 = load ptr, ptr %2, align 8, !tbaa !63
  %16 = getelementptr inbounds nuw %struct.tmpi_global, ptr %15, i32 0, i32 1
  %17 = load i32, ptr %16, align 8, !tbaa !83
  %18 = icmp slt i32 %14, %17
  br i1 %18, label %20, label %19

19:                                               ; preds = %13
  call void @llvm.lifetime.end.p0(i64 4, ptr %3) #11
  br label %40

20:                                               ; preds = %13
  %21 = load ptr, ptr %2, align 8, !tbaa !63
  %22 = getelementptr inbounds nuw %struct.tmpi_global, ptr %21, i32 0, i32 0
  %23 = load ptr, ptr %22, align 8, !tbaa !90
  %24 = load i32, ptr %3, align 4, !tbaa !30
  %25 = sext i32 %24 to i64
  %26 = getelementptr inbounds ptr, ptr %23, i64 %25
  %27 = load ptr, ptr %26, align 8, !tbaa !91
  %28 = getelementptr inbounds nuw %struct.tmpi_datatype_, ptr %27, i32 0, i32 3
  %29 = load ptr, ptr %28, align 8, !tbaa !92
  call void @_Z9tMPI_FreePv(ptr noundef %29)
  %30 = load ptr, ptr %2, align 8, !tbaa !63
  %31 = getelementptr inbounds nuw %struct.tmpi_global, ptr %30, i32 0, i32 0
  %32 = load ptr, ptr %31, align 8, !tbaa !90
  %33 = load i32, ptr %3, align 4, !tbaa !30
  %34 = sext i32 %33 to i64
  %35 = getelementptr inbounds ptr, ptr %32, i64 %34
  %36 = load ptr, ptr %35, align 8, !tbaa !91
  call void @_Z9tMPI_FreePv(ptr noundef %36)
  br label %37

37:                                               ; preds = %20
  %38 = load i32, ptr %3, align 4, !tbaa !30
  %39 = add nsw i32 %38, 1
  store i32 %39, ptr %3, align 4, !tbaa !30
  br label %13, !llvm.loop !95

40:                                               ; preds = %19
  %41 = load ptr, ptr %2, align 8, !tbaa !63
  %42 = getelementptr inbounds nuw %struct.tmpi_global, ptr %41, i32 0, i32 0
  %43 = load ptr, ptr %42, align 8, !tbaa !90
  call void @_Z9tMPI_FreePv(ptr noundef %43)
  ret void
}

; Function Attrs: mustprogress uwtable
define noundef i32 @_Z14tMPI_Is_masterv() #0 {
  %1 = alloca i32, align 4
  %2 = alloca %struct.tMPI_Thread_key_t, align 8
  %3 = load ptr, ptr @TMPI_COMM_WORLD, align 8, !tbaa !3
  %4 = icmp ne ptr %3, null
  br i1 %4, label %5, label %11

5:                                                ; preds = %0
  %6 = load ptr, ptr @TMPI_COMM_WORLD, align 8, !tbaa !3
  %7 = getelementptr inbounds nuw %struct.tmpi_comm_, ptr %6, i32 0, i32 0
  %8 = getelementptr inbounds nuw %struct.tmpi_group_, ptr %7, i32 0, i32 0
  %9 = load i32, ptr %8, align 8, !tbaa !8
  %10 = icmp eq i32 %9, 0
  br i1 %10, label %11, label %12

11:                                               ; preds = %5, %0
  store i32 1, ptr %1, align 4
  br label %17

12:                                               ; preds = %5
  call void @llvm.memcpy.p0.p0.i64(ptr align 8 %2, ptr align 8 @id_key, i64 72, i1 false), !tbaa.struct !29
  %13 = call noundef ptr @_Z23tMPI_Thread_getspecific17tMPI_Thread_key_t(ptr noundef byval(%struct.tMPI_Thread_key_t) align 8 %2)
  %14 = load ptr, ptr @threads, align 8, !tbaa !34
  %15 = icmp eq ptr %13, %14
  %16 = zext i1 %15 to i32
  store i32 %16, ptr %1, align 4
  br label %17

17:                                               ; preds = %12, %11
  %18 = load i32, ptr %1, align 4
  ret i32 %18
}

; Function Attrs: mustprogress uwtable
define noundef i32 @_Z13tMPI_Finalizev() #0 {
  %1 = alloca i32, align 4
  %2 = alloca i32, align 4
  %3 = alloca i32, align 4
  %4 = alloca i32, align 4
  %5 = alloca %struct.tMPI_Thread_key_t, align 8
  %6 = alloca ptr, align 8
  %7 = alloca ptr, align 8
  call void @llvm.lifetime.start.p0(i64 4, ptr %2) #11
  call void @llvm.lifetime.start.p0(i64 4, ptr %3) #11
  %8 = load ptr, ptr @tmpi_global, align 8, !tbaa !63
  %9 = getelementptr inbounds nuw %struct.tmpi_global, ptr %8, i32 0, i32 5
  %10 = call noundef i32 @_Z24tMPI_Thread_barrier_waitP21tMPI_Thread_barrier_t(ptr noundef %9)
  store i32 %10, ptr %3, align 4, !tbaa !30
  %11 = load i32, ptr %3, align 4, !tbaa !30
  %12 = icmp ne i32 %11, 0
  br i1 %12, label %13, label %16

13:                                               ; preds = %0
  %14 = load ptr, ptr @TMPI_COMM_WORLD, align 8, !tbaa !3
  %15 = call noundef i32 @_Z10tMPI_ErrorP10tmpi_comm_i(ptr noundef %14, i32 noundef 2)
  store i32 %15, ptr %1, align 4
  store i32 1, ptr %4, align 4
  br label %116

16:                                               ; preds = %0
  %17 = call noundef i32 @_Z14tMPI_Is_masterv()
  %18 = icmp ne i32 %17, 0
  br i1 %18, label %19, label %114

19:                                               ; preds = %16
  store i32 1, ptr %2, align 4, !tbaa !30
  br label %20

20:                                               ; preds = %41, %19
  %21 = load i32, ptr %2, align 4, !tbaa !30
  %22 = load i32, ptr @Nthreads, align 4, !tbaa !30
  %23 = icmp slt i32 %21, %22
  br i1 %23, label %24, label %44

24:                                               ; preds = %20
  %25 = load ptr, ptr @threads, align 8, !tbaa !34
  %26 = load i32, ptr %2, align 4, !tbaa !30
  %27 = sext i32 %26 to i64
  %28 = getelementptr inbounds %struct.tmpi_thread, ptr %25, i64 %27
  %29 = getelementptr inbounds nuw %struct.tmpi_thread, ptr %28, i32 0, i32 0
  %30 = load ptr, ptr %29, align 8, !tbaa !75
  %31 = call noundef i32 @_Z16tMPI_Thread_joinP11tMPI_ThreadPPv(ptr noundef %30, ptr noundef null)
  %32 = icmp ne i32 %31, 0
  br i1 %32, label %33, label %36

33:                                               ; preds = %24
  %34 = load ptr, ptr @TMPI_COMM_WORLD, align 8, !tbaa !3
  %35 = call noundef i32 @_Z10tMPI_ErrorP10tmpi_comm_i(ptr noundef %34, i32 noundef 4)
  store i32 %35, ptr %1, align 4
  store i32 1, ptr %4, align 4
  br label %116

36:                                               ; preds = %24
  %37 = load ptr, ptr @threads, align 8, !tbaa !34
  %38 = load i32, ptr %2, align 4, !tbaa !30
  %39 = sext i32 %38 to i64
  %40 = getelementptr inbounds %struct.tmpi_thread, ptr %37, i64 %39
  call void @_ZL19tMPI_Thread_destroyP11tmpi_thread(ptr noundef %40)
  br label %41

41:                                               ; preds = %36
  %42 = load i32, ptr %2, align 4, !tbaa !30
  %43 = add nsw i32 %42, 1
  store i32 %43, ptr %2, align 4, !tbaa !30
  br label %20, !llvm.loop !77

44:                                               ; preds = %20
  %45 = load ptr, ptr @threads, align 8, !tbaa !34
  %46 = getelementptr inbounds %struct.tmpi_thread, ptr %45, i64 0
  call void @_ZL19tMPI_Thread_destroyP11tmpi_thread(ptr noundef %46)
  %47 = load ptr, ptr @threads, align 8, !tbaa !34
  call void @free(ptr noundef %47) #11
  call void @llvm.memcpy.p0.p0.i64(ptr align 8 %5, ptr align 8 @id_key, i64 72, i1 false), !tbaa.struct !29
  %48 = call noundef i32 @_Z22tMPI_Thread_key_delete17tMPI_Thread_key_t(ptr noundef byval(%struct.tMPI_Thread_key_t) align 8 %5)
  call void @llvm.lifetime.start.p0(i64 8, ptr %6) #11
  %49 = load ptr, ptr @tmpi_global, align 8, !tbaa !63
  %50 = getelementptr inbounds nuw %struct.tmpi_global, ptr %49, i32 0, i32 4
  %51 = call noundef i32 @_Z22tMPI_Thread_mutex_lockP19tMPI_Thread_mutex_t(ptr noundef %50)
  store i32 %51, ptr %3, align 4, !tbaa !30
  %52 = load i32, ptr %3, align 4, !tbaa !30
  %53 = icmp ne i32 %52, 0
  br i1 %53, label %54, label %57

54:                                               ; preds = %44
  %55 = load ptr, ptr @TMPI_COMM_WORLD, align 8, !tbaa !3
  %56 = call noundef i32 @_Z10tMPI_ErrorP10tmpi_comm_i(ptr noundef %55, i32 noundef 2)
  store i32 %56, ptr %1, align 4
  store i32 1, ptr %4, align 4
  br label %108

57:                                               ; preds = %44
  %58 = load ptr, ptr @TMPI_COMM_WORLD, align 8, !tbaa !3
  %59 = getelementptr inbounds nuw %struct.tmpi_comm_, ptr %58, i32 0, i32 16
  %60 = load ptr, ptr %59, align 8, !tbaa !78
  store ptr %60, ptr %6, align 8, !tbaa !3
  br label %61

61:                                               ; preds = %87, %57
  %62 = load ptr, ptr %6, align 8, !tbaa !3
  %63 = icmp ne ptr %62, null
  br i1 %63, label %64, label %68

64:                                               ; preds = %61
  %65 = load ptr, ptr %6, align 8, !tbaa !3
  %66 = load ptr, ptr @TMPI_COMM_WORLD, align 8, !tbaa !3
  %67 = icmp ne ptr %65, %66
  br label %68

68:                                               ; preds = %64, %61
  %69 = phi i1 [ false, %61 ], [ %67, %64 ]
  br i1 %69, label %70, label %88

70:                                               ; preds = %68
  call void @llvm.lifetime.start.p0(i64 8, ptr %7) #11
  %71 = load ptr, ptr %6, align 8, !tbaa !3
  %72 = getelementptr inbounds nuw %struct.tmpi_comm_, ptr %71, i32 0, i32 16
  %73 = load ptr, ptr %72, align 8, !tbaa !78
  store ptr %73, ptr %7, align 8, !tbaa !3
  %74 = load ptr, ptr %6, align 8, !tbaa !3
  %75 = call noundef i32 @_Z17tMPI_Comm_destroyP10tmpi_comm_i(ptr noundef %74, i32 noundef 0)
  store i32 %75, ptr %3, align 4, !tbaa !30
  %76 = load i32, ptr %3, align 4, !tbaa !30
  %77 = icmp ne i32 %76, 0
  br i1 %77, label %78, label %83

78:                                               ; preds = %70
  %79 = load ptr, ptr @tmpi_global, align 8, !tbaa !63
  %80 = getelementptr inbounds nuw %struct.tmpi_global, ptr %79, i32 0, i32 4
  %81 = call noundef i32 @_Z24tMPI_Thread_mutex_unlockP19tMPI_Thread_mutex_t(ptr noundef %80)
  %82 = load i32, ptr %3, align 4, !tbaa !30
  store i32 %82, ptr %1, align 4
  store i32 1, ptr %4, align 4
  br label %85

83:                                               ; preds = %70
  %84 = load ptr, ptr %7, align 8, !tbaa !3
  store ptr %84, ptr %6, align 8, !tbaa !3
  store i32 0, ptr %4, align 4
  br label %85

85:                                               ; preds = %83, %78
  call void @llvm.lifetime.end.p0(i64 8, ptr %7) #11
  %86 = load i32, ptr %4, align 4
  switch i32 %86, label %108 [
    i32 0, label %87
  ]

87:                                               ; preds = %85
  br label %61, !llvm.loop !79

88:                                               ; preds = %68
  %89 = load ptr, ptr @TMPI_COMM_WORLD, align 8, !tbaa !3
  %90 = call noundef i32 @_Z17tMPI_Comm_destroyP10tmpi_comm_i(ptr noundef %89, i32 noundef 0)
  store i32 %90, ptr %3, align 4, !tbaa !30
  %91 = load i32, ptr %3, align 4, !tbaa !30
  %92 = icmp ne i32 %91, 0
  br i1 %92, label %93, label %98

93:                                               ; preds = %88
  %94 = load ptr, ptr @tmpi_global, align 8, !tbaa !63
  %95 = getelementptr inbounds nuw %struct.tmpi_global, ptr %94, i32 0, i32 4
  %96 = call noundef i32 @_Z24tMPI_Thread_mutex_unlockP19tMPI_Thread_mutex_t(ptr noundef %95)
  %97 = load i32, ptr %3, align 4, !tbaa !30
  store i32 %97, ptr %1, align 4
  store i32 1, ptr %4, align 4
  br label %108

98:                                               ; preds = %88
  %99 = load ptr, ptr @tmpi_global, align 8, !tbaa !63
  %100 = getelementptr inbounds nuw %struct.tmpi_global, ptr %99, i32 0, i32 4
  %101 = call noundef i32 @_Z24tMPI_Thread_mutex_unlockP19tMPI_Thread_mutex_t(ptr noundef %100)
  store i32 %101, ptr %3, align 4, !tbaa !30
  %102 = load i32, ptr %3, align 4, !tbaa !30
  %103 = icmp ne i32 %102, 0
  br i1 %103, label %104, label %107

104:                                              ; preds = %98
  %105 = load ptr, ptr @TMPI_COMM_WORLD, align 8, !tbaa !3
  %106 = call noundef i32 @_Z10tMPI_ErrorP10tmpi_comm_i(ptr noundef %105, i32 noundef 2)
  store i32 %106, ptr %1, align 4
  store i32 1, ptr %4, align 4
  br label %108

107:                                              ; preds = %98
  store i32 0, ptr %4, align 4
  br label %108

108:                                              ; preds = %107, %104, %93, %85, %54
  call void @llvm.lifetime.end.p0(i64 8, ptr %6) #11
  %109 = load i32, ptr %4, align 4
  switch i32 %109, label %116 [
    i32 0, label %110
  ]

110:                                              ; preds = %108
  %111 = call noundef i32 @_Z15tMPI_Group_freePP11tmpi_group_(ptr noundef @TMPI_GROUP_EMPTY)
  store ptr null, ptr @threads, align 8, !tbaa !34
  store ptr null, ptr @TMPI_COMM_WORLD, align 8, !tbaa !3
  store ptr null, ptr @TMPI_GROUP_EMPTY, align 8, !tbaa !65
  store i32 0, ptr @Nthreads, align 4, !tbaa !30
  %112 = load ptr, ptr @tmpi_global, align 8, !tbaa !63
  call void @_ZL19tMPI_Global_destroyP11tmpi_global(ptr noundef %112)
  %113 = load ptr, ptr @tmpi_global, align 8, !tbaa !63
  call void @free(ptr noundef %113) #11
  store i32 1, ptr @_ZL14tmpi_finalized, align 4, !tbaa !30
  br label %115

114:                                              ; preds = %16
  call void @_Z16tMPI_Thread_exitPv(ptr noundef null)
  br label %115

115:                                              ; preds = %114, %110
  store i32 0, ptr %1, align 4
  store i32 1, ptr %4, align 4
  br label %116

116:                                              ; preds = %115, %108, %33, %13
  call void @llvm.lifetime.end.p0(i64 4, ptr %3) #11
  call void @llvm.lifetime.end.p0(i64 4, ptr %2) #11
  %117 = load i32, ptr %1, align 4
  ret i32 %117
}