; Function Attrs: mustprogress uwtable
define noundef i32 @_Z13tMPI_Finalizev() local_unnamed_addr #0 {
  %1 = load ptr, ptr @tmpi_global, align 8, !tbaa !53
  %2 = getelementptr inbounds nuw i8, ptr %1, i64 152
  %3 = tail call noundef i32 @_Z24tMPI_Thread_barrier_waitP21tMPI_Thread_barrier_t(ptr noundef nonnull %2)
  %.not = icmp eq i32 %3, 0
  %4 = load ptr, ptr @TMPI_COMM_WORLD, align 8, !tbaa !3
  br i1 %.not, label %7, label %5

5:                                                ; preds = %0
  %6 = tail call noundef i32 @_Z10tMPI_ErrorP10tmpi_comm_i(ptr noundef %4, i32 noundef 2)
  br label %.thread34

7:                                                ; preds = %0
  %.not.i = icmp eq ptr %4, null
  br i1 %.not.i, label %.preheader, label %8

8:                                                ; preds = %7
  %9 = load i32, ptr %4, align 8, !tbaa !8
  %10 = icmp eq i32 %9, 0
  br i1 %10, label %.preheader, label %_Z14tMPI_Is_masterv.exit

_Z14tMPI_Is_masterv.exit:                         ; preds = %8
  %11 = tail call noundef ptr @_Z23tMPI_Thread_getspecific17tMPI_Thread_key_t(ptr noundef nonnull byval(%struct.tMPI_Thread_key_t) align 8 @id_key)
  %12 = load ptr, ptr @threads, align 8, !tbaa !29
  %.not40 = icmp eq ptr %11, %12
  br i1 %.not40, label %.preheader, label %86

.preheader:                                       ; preds = %8, %7, %_Z14tMPI_Is_masterv.exit
  %13 = load i32, ptr @Nthreads, align 4, !tbaa !46
  %14 = icmp sgt i32 %13, 1
  br i1 %14, label %.lr.ph, label %._crit_edge

.lr.ph:                                           ; preds = %.preheader, %22
  %indvars.iv = phi i64 [ %indvars.iv.next, %22 ], [ 1, %.preheader ]
  %15 = load ptr, ptr @threads, align 8, !tbaa !29
  %16 = getelementptr inbounds nuw %struct.tmpi_thread, ptr %15, i64 %indvars.iv
  %17 = load ptr, ptr %16, align 8, !tbaa !67
  %18 = tail call noundef i32 @_Z16tMPI_Thread_joinP11tMPI_ThreadPPv(ptr noundef %17, ptr noundef null)
  %.not31 = icmp eq i32 %18, 0
  br i1 %.not31, label %22, label %19

19:                                               ; preds = %.lr.ph
  %20 = load ptr, ptr @TMPI_COMM_WORLD, align 8, !tbaa !3
  %21 = tail call noundef i32 @_Z10tMPI_ErrorP10tmpi_comm_i(ptr noundef %20, i32 noundef 4)
  br label %.thread34

22:                                               ; preds = %.lr.ph
  %23 = load ptr, ptr @threads, align 8, !tbaa !29
  %24 = getelementptr inbounds nuw %struct.tmpi_thread, ptr %23, i64 %indvars.iv
  tail call fastcc void @_ZL19tMPI_Thread_destroyP11tmpi_thread(ptr noundef nonnull %24)
  %indvars.iv.next = add nuw nsw i64 %indvars.iv, 1
  %25 = load i32, ptr @Nthreads, align 4, !tbaa !46
  %26 = sext i32 %25 to i64
  %27 = icmp slt i64 %indvars.iv.next, %26
  br i1 %27, label %.lr.ph, label %._crit_edge, !llvm.loop !69

._crit_edge:                                      ; preds = %22, %.preheader
  %28 = load ptr, ptr @threads, align 8, !tbaa !29
  tail call fastcc void @_ZL19tMPI_Thread_destroyP11tmpi_thread(ptr noundef %28)
  %29 = load ptr, ptr @threads, align 8, !tbaa !29
  tail call void @free(ptr noundef %29) #18
  %30 = tail call noundef i32 @_Z22tMPI_Thread_key_delete17tMPI_Thread_key_t(ptr noundef nonnull byval(%struct.tMPI_Thread_key_t) align 8 @id_key)
  %31 = load ptr, ptr @tmpi_global, align 8, !tbaa !53
  %32 = getelementptr inbounds nuw i8, ptr %31, i64 80
  %33 = tail call noundef i32 @_Z22tMPI_Thread_mutex_lockP19tMPI_Thread_mutex_t(ptr noundef nonnull %32)
  %.not27 = icmp eq i32 %33, 0
  %34 = load ptr, ptr @TMPI_COMM_WORLD, align 8, !tbaa !3
  br i1 %.not27, label %37, label %35

35:                                               ; preds = %._crit_edge
  %36 = tail call noundef i32 @_Z10tMPI_ErrorP10tmpi_comm_i(ptr noundef %34, i32 noundef 2)
  br label %.thread34

37:                                               ; preds = %._crit_edge
  %38 = getelementptr inbounds nuw i8, ptr %34, i64 456
  %39 = load ptr, ptr %38, align 8, !tbaa !70
  br label %40

40:                                               ; preds = %45, %37
  %.019 = phi ptr [ %39, %37 ], [ %47, %45 ]
  %41 = icmp ne ptr %.019, null
  %42 = load ptr, ptr @TMPI_COMM_WORLD, align 8
  %43 = icmp ne ptr %.019, %42
  %44 = select i1 %41, i1 %43, i1 false
  br i1 %44, label %45, label %52

45:                                               ; preds = %40
  %46 = getelementptr inbounds nuw i8, ptr %.019, i64 456
  %47 = load ptr, ptr %46, align 8, !tbaa !70
  %48 = tail call noundef i32 @_Z17tMPI_Comm_destroyP10tmpi_comm_i(ptr noundef nonnull %.019, i32 noundef 0)
  %.not30 = icmp eq i32 %48, 0
  br i1 %.not30, label %40, label %.thread, !llvm.loop !71

.thread:                                          ; preds = %45
  %49 = load ptr, ptr @tmpi_global, align 8, !tbaa !53
  %50 = getelementptr inbounds nuw i8, ptr %49, i64 80
  %51 = tail call noundef i32 @_Z24tMPI_Thread_mutex_unlockP19tMPI_Thread_mutex_t(ptr noundef nonnull %50)
  br label %.thread34

52:                                               ; preds = %40
  %53 = tail call noundef i32 @_Z17tMPI_Comm_destroyP10tmpi_comm_i(ptr noundef %42, i32 noundef 0)
  %.not28 = icmp eq i32 %53, 0
  %54 = load ptr, ptr @tmpi_global, align 8, !tbaa !53
  %55 = getelementptr inbounds nuw i8, ptr %54, i64 80
  %56 = tail call noundef i32 @_Z24tMPI_Thread_mutex_unlockP19tMPI_Thread_mutex_t(ptr noundef nonnull %55)
  br i1 %.not28, label %57, label %.thread34

57:                                               ; preds = %52
  %.not29 = icmp eq i32 %56, 0
  br i1 %.not29, label %61, label %58

58:                                               ; preds = %57
  %59 = load ptr, ptr @TMPI_COMM_WORLD, align 8, !tbaa !3
  %60 = tail call noundef i32 @_Z10tMPI_ErrorP10tmpi_comm_i(ptr noundef %59, i32 noundef 2)
  br label %.thread34

61:                                               ; preds = %57
  %62 = tail call noundef i32 @_Z15tMPI_Group_freePP11tmpi_group_(ptr noundef nonnull @TMPI_GROUP_EMPTY)
  store ptr null, ptr @threads, align 8, !tbaa !29
  store ptr null, ptr @TMPI_COMM_WORLD, align 8, !tbaa !3
  store ptr null, ptr @TMPI_GROUP_EMPTY, align 8, !tbaa !57
  store i32 0, ptr @Nthreads, align 4, !tbaa !46
  %63 = load ptr, ptr @tmpi_global, align 8, !tbaa !53
  %64 = getelementptr inbounds nuw i8, ptr %63, i64 152
  %65 = tail call noundef i32 @_Z27tMPI_Thread_barrier_destroyP21tMPI_Thread_barrier_t(ptr noundef nonnull %64)
  %66 = getelementptr inbounds nuw i8, ptr %63, i64 240
  %67 = tail call noundef i32 @_Z25tMPI_Thread_mutex_destroyP19tMPI_Thread_mutex_t(ptr noundef nonnull %66)
  %68 = getelementptr inbounds nuw i8, ptr %63, i64 80
  %69 = tail call noundef i32 @_Z25tMPI_Thread_mutex_destroyP19tMPI_Thread_mutex_t(ptr noundef nonnull %68)
  %70 = getelementptr inbounds nuw i8, ptr %63, i64 8
  %71 = load i32, ptr %70, align 8, !tbaa !72
  %72 = icmp sgt i32 %71, 0
  br i1 %72, label %.lr.ph.i, label %_ZL19tMPI_Global_destroyP11tmpi_global.exit

.lr.ph.i:                                         ; preds = %61, %.lr.ph.i
  %indvars.iv.i = phi i64 [ %indvars.iv.next.i, %.lr.ph.i ], [ 0, %61 ]
  %73 = load ptr, ptr %63, align 8, !tbaa !78
  %74 = getelementptr inbounds nuw ptr, ptr %73, i64 %indvars.iv.i
  %75 = load ptr, ptr %74, align 8, !tbaa !79
  %76 = getelementptr inbounds nuw i8, ptr %75, i64 24
  %77 = load ptr, ptr %76, align 8, !tbaa !80
  tail call void @_Z9tMPI_FreePv(ptr noundef %77)
  %78 = load ptr, ptr %63, align 8, !tbaa !78
  %79 = getelementptr inbounds nuw ptr, ptr %78, i64 %indvars.iv.i
  %80 = load ptr, ptr %79, align 8, !tbaa !79
  tail call void @_Z9tMPI_FreePv(ptr noundef %80)
  %indvars.iv.next.i = add nuw nsw i64 %indvars.iv.i, 1
  %81 = load i32, ptr %70, align 8, !tbaa !72
  %82 = sext i32 %81 to i64
  %83 = icmp slt i64 %indvars.iv.next.i, %82
  br i1 %83, label %.lr.ph.i, label %_ZL19tMPI_Global_destroyP11tmpi_global.exit, !llvm.loop !83

_ZL19tMPI_Global_destroyP11tmpi_global.exit:      ; preds = %.lr.ph.i, %61
  %84 = load ptr, ptr %63, align 8, !tbaa !78
  tail call void @_Z9tMPI_FreePv(ptr noundef %84)
  %85 = load ptr, ptr @tmpi_global, align 8, !tbaa !53
  tail call void @free(ptr noundef %85) #18
  store i1 true, ptr @_ZL14tmpi_finalized, align 4
  br label %.thread34

86:                                               ; preds = %_Z14tMPI_Is_masterv.exit
  tail call void @_Z16tMPI_Thread_exitPv(ptr noundef null)
  br label %.thread34

.thread34:                                        ; preds = %52, %.thread, %58, %35, %_ZL19tMPI_Global_destroyP11tmpi_global.exit, %86, %19, %5
  %.0 = phi i32 [ %6, %5 ], [ %21, %19 ], [ 0, %86 ], [ 0, %_ZL19tMPI_Global_destroyP11tmpi_global.exit ], [ %48, %.thread ], [ %60, %58 ], [ %36, %35 ], [ %53, %52 ]
  ret i32 %.0
}